(dp1
S'test'
p2
(lp3
(I1
F0.00080915906988084313
F96.790000000000006
tp4
a(I2
F0.00048311156886629759
F98.069999999999993
tp5
a(I3
F0.00044871218972839416
F98.200000000000003
tp6
a(I4
F0.00038393025365658103
F98.340000000000003
tp7
a(I5
F0.00036911960761062799
F98.540000000000006
tp8
a(I6
F0.00032997445068322123
F98.689999999999998
tp9
a(I7
F0.00037097538106027058
F98.569999999999993
tp10
a(I8
F0.00033479039692319929
F98.590000000000003
tp11
a(I9
F0.00028074701860896314
F98.769999999999996
tp12
a(I10
F0.00027757705603726206
F98.870000000000005
tp13
asS'train_time'
p14
(F4.6164599418640133
F46.164599418640137
tp15
sS'train'
p16
(lp17
(I1
F0.10225532203912735
F83.334999999999994
F4.5885505676269531
F0.0097836899096523516
F2.0078086853027344
F0.0042810419729269389
tp18
a(I2
F0.14760400354862213
F93.568333333333328
F3.9077479839324951
F0.0083320852535874092
F1.9470312595367432
F0.0041514525789696013
tp19
a(I3
F0.24157404899597168
F94.984999999999999
F4.0371448993682861
F0.008607984860060312
F2.0693092346191406
F0.0044121732081431574
tp20
a(I4
F0.12919612228870392
F95.588333333333338
F4.1140120029449463
F0.0087718806032941292
F2.1240863800048828
F0.004528968827302522
tp21
a(I5
F0.076364882290363312
F96.120000000000005
F5.3997721672058105
F0.011513373490843946
F3.3399596214294434
F0.0071214490862035037
tp22
a(I6
F0.20145963132381439
F96.37833333333333
F3.9383246898651123
F0.0083972807886249726
F1.9711711406707764
F0.0042029235408758562
tp23
a(I7
F0.18263554573059082
F96.681666666666672
F5.3811445236206055
F0.011473655700683594
F3.3070545196533203
F0.0070512889544846911
tp24
a(I8
F0.20820094645023346
F96.680000000000007
F6.2797555923461914
F0.013389670772593159
F4.0968136787414551
F0.008735210402433807
tp25
a(I9
F0.020995577797293663
F96.826666666666668
F4.1659150123596191
F0.0088825480007667778
F2.1905660629272461
F0.0046707165520836801
tp26
a(I10
F0.18364912271499634
F96.976666666666674
F4.3522319793701172
F0.0092798123227507828
F2.370380163192749
F0.005054115486551704
tp27
asS'test_time'
p28
(F8.4186527729034419e-05
F0.84186527729034422
tp29
s.